; Function Attrs: nounwind uwtable
define internal noundef i32 @luaB_cocreate(ptr noundef %0) #0 {
  %2 = tail call ptr @lua_newthread(ptr noundef %0) #8
  %3 = tail call i32 @lua_type(ptr noundef %0, i32 noundef 1) #8
  %4 = icmp eq i32 %3, 6
  br i1 %4, label %5, label %7

5:                                                ; preds = %1
  %6 = tail call i32 @lua_iscfunction(ptr noundef %0, i32 noundef 1) #8
  %.not = icmp eq i32 %6, 0
  br i1 %.not, label %9, label %7

7:                                                ; preds = %5, %1
  %8 = tail call i32 @luaL_argerror(ptr noundef %0, i32 noundef 1, ptr noundef nonnull @.str.71) #8
  br label %9

9:                                                ; preds = %7, %5
  tail call void @lua_pushvalue(ptr noundef %0, i32 noundef 1) #8
  tail call void @lua_xmove(ptr noundef %0, ptr noundef %2, i32 noundef 1) #8
  ret i32 1
}